; Function Attrs: nounwind uwtable
define hidden zeroext i1 @SDL_GamepadSensorEnabled_REAL(ptr noundef %0, i32 noundef %1) local_unnamed_addr #0 {
  tail call void @SDL_LockJoysticks_REAL() #10
  tail call void @SDL_LockJoysticks_REAL() #10
  %3 = tail call zeroext i1 @SDL_ObjectValid(ptr noundef %0, i32 noundef 5) #10
  br i1 %3, label %4, label %SDL_GetGamepadJoystick_REAL.exit.thread

4:                                                ; preds = %2
  %5 = load ptr, ptr %0, align 8
  %6 = tail call zeroext i1 @SDL_IsJoystickValid(ptr noundef %5) #10
  br i1 %6, label %SDL_GetGamepadJoystick_REAL.exit, label %SDL_GetGamepadJoystick_REAL.exit.thread

SDL_GetGamepadJoystick_REAL.exit.thread:          ; preds = %2, %4
  %7 = tail call zeroext i1 (ptr, ...) @SDL_SetError_REAL(ptr noundef nonnull @.str.4, ptr noundef nonnull @.str.5) #10
  tail call void @SDL_UnlockJoysticks_REAL() #10
  br label %.loopexit

SDL_GetGamepadJoystick_REAL.exit:                 ; preds = %4
  %8 = load ptr, ptr %0, align 8
  tail call void @SDL_UnlockJoysticks_REAL() #10
  %.not = icmp eq ptr %8, null
  br i1 %.not, label %.loopexit, label %.preheader

.preheader:                                       ; preds = %SDL_GetGamepadJoystick_REAL.exit
  %9 = getelementptr inbounds nuw i8, ptr %8, i64 144
  %10 = load i32, ptr %9, align 8
  %11 = icmp sgt i32 %10, 0
  br i1 %11, label %.lr.ph, label %.loopexit

.lr.ph:                                           ; preds = %.preheader
  %12 = getelementptr inbounds nuw i8, ptr %8, i64 152
  %13 = load ptr, ptr %12, align 8
  %wide.trip.count = zext nneg i32 %10 to i64
  br label %15

14:                                               ; preds = %15
  %indvars.iv.next = add nuw nsw i64 %indvars.iv, 1
  %exitcond.not = icmp eq i64 %indvars.iv.next, %wide.trip.count
  br i1 %exitcond.not, label %.loopexit, label %15, !llvm.loop !53

15:                                               ; preds = %.lr.ph, %14
  %indvars.iv = phi i64 [ 0, %.lr.ph ], [ %indvars.iv.next, %14 ]
  %16 = getelementptr inbounds nuw %struct.SDL_JoystickSensorInfo, ptr %13, i64 %indvars.iv
  %17 = load i32, ptr %16, align 4
  %18 = icmp eq i32 %17, %1
  br i1 %18, label %19, label %14

19:                                               ; preds = %15
  %20 = getelementptr inbounds nuw i8, ptr %16, i64 4
  %21 = load i8, ptr %20, align 4, !range !23, !noundef !24
  %22 = trunc nuw i8 %21 to i1
  br label %.loopexit

.loopexit:                                        ; preds = %14, %.preheader, %SDL_GetGamepadJoystick_REAL.exit.thread, %19, %SDL_GetGamepadJoystick_REAL.exit
  %.010 = phi i1 [ false, %SDL_GetGamepadJoystick_REAL.exit ], [ %22, %19 ], [ false, %SDL_GetGamepadJoystick_REAL.exit.thread ], [ false, %.preheader ], [ false, %14 ]
  tail call void @SDL_UnlockJoysticks_REAL() #10
  ret i1 %.010
}